; Function Attrs: nounwind uwtable
define hidden i32 @_cmsWriteTypeBase(ptr noundef %0, i32 noundef %1) local_unnamed_addr #2 {
  %3 = alloca %struct._cmsTagBase, align 4
  %.sroa.0.0.insert.insert.i = tail call noundef i32 @llvm.bswap.i32(i32 %1)
  store i32 %.sroa.0.0.insert.insert.i, ptr %3, align 4
  %4 = getelementptr inbounds i8, ptr %3, i64 4
  store i32 0, ptr %4, align 4
  %5 = getelementptr inbounds i8, ptr %0, i64 312
  %6 = load ptr, ptr %5, align 8
  %7 = call i32 %6(ptr noundef %0, i32 noundef 8, ptr noundef nonnull %3) #12
  ret i32 %7
}